target datalayout = "e-m:e-p270:32:32-p271:32:32-p272:64:64-i64:64-i128:128-f80:128-n8:16:32:64-S128"
target triple = "x86_64-pc-linux-gnu"

%struct.jit_State = type { %struct.GCtrace, ptr, ptr, ptr, ptr, ptr, ptr, i32, i32, i32, i8, i8, %struct.IRType1, i8, %struct.FoldState, ptr, i32, i32, i32, i32, i32, i32, i32, [1 x i32], [5 x %union.TValue], [3 x %union.TValue], ptr, i32, i32, i32, i32, ptr, ptr, i32, i32, i8, ptr, i32, i32, i16, [101 x i16], [258 x i32], [15 x i32], [16 x ptr], [64 x %struct.HotPenalty], i32, [16 x %struct.BPropEntry], i32, %struct.ScEvEntry, ptr, i32, i32, i32, ptr, i32, i32, ptr, ptr, ptr, i64, i64, %union.TValue, ptr, i32, i32 }
%struct.GCtrace = type { %struct.GCRef, i8, i8, i16, i32, i32, %struct.GCRef, ptr, i32, i32, ptr, ptr, %struct.GCRef, %struct.MRef, i32, i32, ptr, i32, i16, i16, i16, i16, i16, i16, i16, i8, i8, i8, i8 }
%struct.GCRef = type { i64 }
%struct.MRef = type { i64 }
%struct.IRType1 = type { i8 }
%struct.FoldState = type { %union.IRIns, [2 x %union.IRIns], [2 x %union.IRIns] }
%union.IRIns = type { %struct.GCRef }
%struct.HotPenalty = type { %struct.MRef, i16, i16 }
%struct.BPropEntry = type { i16, i16, i32 }
%struct.ScEvEntry = type { %struct.MRef, i16, i16, i16, i16, %struct.IRType1, i8 }
%union.TValue = type { i64 }
%struct.anon.0 = type { i32, %struct.IRType1, i8, i8, i8 }
%struct.anon = type { i16, i16, i16, i16 }

; Function Attrs: nounwind uwtable
define hidden i32 @lj_opt_cselim(ptr noundef %0, i32 noundef %1) #0 {
  %3 = alloca i32, align 4
  %4 = alloca ptr, align 8
  %5 = alloca i32, align 4
  %6 = alloca i32, align 4
  %7 = alloca i32, align 4
  %8 = alloca i32, align 4
  store ptr %0, ptr %4, align 8, !tbaa !4
  store i32 %1, ptr %5, align 4, !tbaa !30
  call void @llvm.lifetime.start.p0(i64 4, ptr %6) #8
  %9 = load ptr, ptr %4, align 8, !tbaa !4
  %10 = getelementptr inbounds nuw %struct.jit_State, ptr %9, i32 0, i32 40
  %11 = load ptr, ptr %4, align 8, !tbaa !4
  %12 = getelementptr inbounds nuw %struct.jit_State, ptr %11, i32 0, i32 14
  %13 = getelementptr inbounds nuw %struct.FoldState, ptr %12, i32 0, i32 0
  %14 = getelementptr inbounds nuw %struct.anon.0, ptr %13, i32 0, i32 2
  %15 = load i8, ptr %14, align 1, !tbaa !29
  %16 = zext i8 %15 to i64
  %17 = getelementptr inbounds nuw [101 x i16], ptr %10, i64 0, i64 %16
  %18 = load i16, ptr %17, align 2, !tbaa !35
  %19 = zext i16 %18 to i32
  store i32 %19, ptr %6, align 4, !tbaa !30
  call void @llvm.lifetime.start.p0(i64 4, ptr %7) #8
  %20 = load ptr, ptr %4, align 8, !tbaa !4
  %21 = getelementptr inbounds nuw %struct.jit_State, ptr %20, i32 0, i32 14
  %22 = getelementptr inbounds nuw %struct.FoldState, ptr %21, i32 0, i32 0
  %23 = getelementptr inbounds nuw %struct.anon, ptr %22, i32 0, i32 0
  %24 = load i16, ptr %23, align 8, !tbaa !29
  %25 = zext i16 %24 to i32
  %26 = load ptr, ptr %4, align 8, !tbaa !4
  %27 = getelementptr inbounds nuw %struct.jit_State, ptr %26, i32 0, i32 14
  %28 = getelementptr inbounds nuw %struct.FoldState, ptr %27, i32 0, i32 0
  %29 = getelementptr inbounds nuw %struct.anon, ptr %28, i32 0, i32 1
  %30 = load i16, ptr %29, align 2, !tbaa !29
  %31 = zext i16 %30 to i32
  %32 = shl i32 %31, 16
  %33 = add i32 %25, %32
  store i32 %33, ptr %7, align 4, !tbaa !30
  br label %34

34:                                               ; preds = %52, %2
  %35 = load i32, ptr %6, align 4, !tbaa !30
  %36 = load i32, ptr %5, align 4, !tbaa !30
  %37 = icmp ugt i32 %35, %36
  br i1 %37, label %38, label %63

38:                                               ; preds = %34
  %39 = load ptr, ptr %4, align 8, !tbaa !4
  %40 = getelementptr inbounds nuw %struct.jit_State, ptr %39, i32 0, i32 0
  %41 = getelementptr inbounds nuw %struct.GCtrace, ptr %40, i32 0, i32 7
  %42 = load ptr, ptr %41, align 8, !tbaa !32
  %43 = load i32, ptr %6, align 4, !tbaa !30
  %44 = zext i32 %43 to i64
  %45 = getelementptr inbounds nuw %union.IRIns, ptr %42, i64 %44
  %46 = getelementptr inbounds nuw %struct.anon.0, ptr %45, i32 0, i32 0
  %47 = load i32, ptr %46, align 8, !tbaa !29
  %48 = load i32, ptr %7, align 4, !tbaa !30
  %49 = icmp eq i32 %47, %48
  br i1 %49, label %50, label %52

50:                                               ; preds = %38
  %51 = load i32, ptr %6, align 4, !tbaa !30
  store i32 %51, ptr %3, align 4
  store i32 1, ptr %8, align 4
  br label %66

52:                                               ; preds = %38
  %53 = load ptr, ptr %4, align 8, !tbaa !4
  %54 = getelementptr inbounds nuw %struct.jit_State, ptr %53, i32 0, i32 0
  %55 = getelementptr inbounds nuw %struct.GCtrace, ptr %54, i32 0, i32 7
  %56 = load ptr, ptr %55, align 8, !tbaa !32
  %57 = load i32, ptr %6, align 4, !tbaa !30
  %58 = zext i32 %57 to i64
  %59 = getelementptr inbounds nuw %union.IRIns, ptr %56, i64 %58
  %60 = getelementptr inbounds nuw %struct.anon, ptr %59, i32 0, i32 3
  %61 = load i16, ptr %60, align 2, !tbaa !29
  %62 = zext i16 %61 to i32
  store i32 %62, ptr %6, align 4, !tbaa !30
  br label %34, !llvm.loop !44

63:                                               ; preds = %34
  %64 = load ptr, ptr %4, align 8, !tbaa !4
  %65 = call i32 @lj_ir_emit(ptr noundef %64)
  store i32 %65, ptr %3, align 4
  store i32 1, ptr %8, align 4
  br label %66

66:                                               ; preds = %63, %50
  call void @llvm.lifetime.end.p0(i64 4, ptr %7) #8
  call void @llvm.lifetime.end.p0(i64 4, ptr %6) #8
  %67 = load i32, ptr %3, align 4
  ret i32 %67
}