; Function Attrs: nounwind uwtable
define hidden i32 @lj_opt_cselim(ptr noundef %0, i32 noundef %1) local_unnamed_addr #0 {
  %3 = getelementptr inbounds nuw i8, ptr %0, i64 402
  %4 = getelementptr inbounds nuw i8, ptr %0, i64 184
  %5 = getelementptr inbounds nuw i8, ptr %0, i64 189
  %6 = load i8, ptr %5, align 1, !tbaa !28
  %7 = zext i8 %6 to i64
  %8 = getelementptr inbounds nuw [101 x i16], ptr %3, i64 0, i64 %7
  %9 = load i32, ptr %4, align 8
  %.013.in15 = load i16, ptr %8, align 2, !tbaa !28
  %.01316 = zext i16 %.013.in15 to i32
  %10 = icmp ult i32 %1, %.01316
  br i1 %10, label %.lr.ph, label %._crit_edge

.lr.ph:                                           ; preds = %2
  %11 = getelementptr inbounds nuw i8, ptr %0, i64 32
  %12 = load ptr, ptr %11, align 8, !tbaa !30
  %13 = zext i16 %.013.in15 to i64
  %14 = getelementptr inbounds nuw %union.IRIns, ptr %12, i64 %13
  %15 = load i32, ptr %14, align 8, !tbaa !28
  %16 = icmp eq i32 %15, %9
  br i1 %16, label %.loopexit, label %.lr.ph22.preheader

.lr.ph22.preheader:                               ; preds = %.lr.ph
  %invariant.gep = getelementptr inbounds i8, ptr %12, i64 6
  br label %.lr.ph22

.lr.ph22:                                         ; preds = %.lr.ph22.preheader, %19
  %17 = phi i64 [ %20, %19 ], [ %13, %.lr.ph22.preheader ]
  %gep = getelementptr inbounds %union.IRIns, ptr %invariant.gep, i64 %17
  %.013.in = load i16, ptr %gep, align 2, !tbaa !28
  %.013 = zext i16 %.013.in to i32
  %18 = icmp samesign ult i32 %1, %.013
  br i1 %18, label %19, label %._crit_edge, !llvm.loop !40

19:                                               ; preds = %.lr.ph22
  %20 = zext i16 %.013.in to i64
  %21 = getelementptr inbounds nuw %union.IRIns, ptr %12, i64 %20
  %22 = load i32, ptr %21, align 8, !tbaa !28
  %23 = icmp eq i32 %22, %9
  br i1 %23, label %.loopexit, label %.lr.ph22, !llvm.loop !40

._crit_edge:                                      ; preds = %.lr.ph22, %2
  %24 = tail call i32 @lj_ir_emit(ptr noundef nonnull %0) #12
  br label %.loopexit

.loopexit:                                        ; preds = %19, %.lr.ph, %._crit_edge
  %.0 = phi i32 [ %24, %._crit_edge ], [ %.01316, %.lr.ph ], [ %.013, %19 ]
  ret i32 %.0
}